target datalayout = "e-m:e-p270:32:32-p271:32:32-p272:64:64-i64:64-f80:128-n8:16:32:64-S128"
target triple = "x86_64-pc-linux-gnu"

@b = dso_local global [500 x [6 x i8]] zeroinitializer, align 16
@p = dso_local global i32 1, align 4
@.str = private unnamed_addr constant [4 x i8] c"%d\0A\00", align 1
@.str.1 = private unnamed_addr constant [4 x i8] c"NO\0A\00", align 1

; Function Attrs: noinline nounwind uwtable
define dso_local i32 @f(i8* %0, i32 %1, i32 %2) #0 {
  %4 = alloca i32, align 4
  %5 = alloca i8*, align 8
  %6 = alloca i32, align 4
  %7 = alloca i32, align 4
  %8 = alloca i32, align 4
  %9 = alloca i32, align 4
  %10 = alloca i32, align 4
  %11 = alloca i32, align 4
  %12 = alloca [500 x i32], align 16
  %13 = alloca [500 x [6 x i8]], align 16
  %14 = alloca [6 x i8], align 1
  store i8* %0, i8** %5, align 8
  store i32 %1, i32* %6, align 4
  store i32 %2, i32* %7, align 4
  store i32 0, i32* %10, align 4
  store i32 0, i32* %11, align 4
  %15 = bitcast [500 x i32]* %12 to i8*
  call void @llvm.memset.p0i8.i64(i8* align 16 %15, i8 0, i64 2000, i1 false)
  %16 = bitcast [500 x [6 x i8]]* %13 to i8*
  call void @llvm.memset.p0i8.i64(i8* align 16 %16, i8 0, i64 3000, i1 false)
  %17 = bitcast [6 x i8]* %14 to i8*
  call void @llvm.memset.p0i8.i64(i8* align 1 %17, i8 0, i64 6, i1 false)
  store i32 0, i32* %8, align 4
  br label %18

18:                                               ; preds = %90, %3
  %19 = load i32, i32* %8, align 4
  %20 = load i32, i32* %7, align 4
  %21 = load i32, i32* %6, align 4
  %22 = sub nsw i32 %20, %21
  %23 = add nsw i32 %22, 1
  %24 = icmp slt i32 %19, %23
  br i1 %24, label %25, label %93

25:                                               ; preds = %18
  store i32 0, i32* %9, align 4
  br label %26

26:                                               ; preds = %41, %25
  %27 = load i32, i32* %9, align 4
  %28 = load i32, i32* %6, align 4
  %29 = icmp slt i32 %27, %28
  br i1 %29, label %30, label %44

30:                                               ; preds = %26
  %31 = load i8*, i8** %5, align 8
  %32 = load i32, i32* %8, align 4
  %33 = load i32, i32* %9, align 4
  %34 = add nsw i32 %32, %33
  %35 = sext i32 %34 to i64
  %36 = getelementptr inbounds i8, i8* %31, i64 %35
  %37 = load i8, i8* %36, align 1
  %38 = load i32, i32* %9, align 4
  %39 = sext i32 %38 to i64
  %40 = getelementptr inbounds [6 x i8], [6 x i8]* %14, i64 0, i64 %39
  store i8 %37, i8* %40, align 1
  br label %41

41:                                               ; preds = %30
  %42 = load i32, i32* %9, align 4
  %43 = add nsw i32 %42, 1
  store i32 %43, i32* %9, align 4
  br label %26

44:                                               ; preds = %26
  store i32 0, i32* %9, align 4
  br label %45

45:                                               ; preds = %60, %44
  %46 = load i32, i32* %9, align 4
  %47 = load i32, i32* %10, align 4
  %48 = add nsw i32 %47, 1
  %49 = icmp slt i32 %46, %48
  br i1 %49, label %50, label %63

50:                                               ; preds = %45
  %51 = getelementptr inbounds [6 x i8], [6 x i8]* %14, i64 0, i64 0
  %52 = load i32, i32* %9, align 4
  %53 = sext i32 %52 to i64
  %54 = getelementptr inbounds [500 x [6 x i8]], [500 x [6 x i8]]* %13, i64 0, i64 %53
  %55 = getelementptr inbounds [6 x i8], [6 x i8]* %54, i64 0, i64 0
  %56 = call i32 @strcmp(i8* %51, i8* %55) #5
  %57 = icmp eq i32 %56, 0
  br i1 %57, label %58, label %59

58:                                               ; preds = %50
  br label %63

59:                                               ; preds = %50
  br label %60

60:                                               ; preds = %59
  %61 = load i32, i32* %9, align 4
  %62 = add nsw i32 %61, 1
  store i32 %62, i32* %9, align 4
  br label %45

63:                                               ; preds = %58, %45
  %64 = load i32, i32* %9, align 4
  %65 = load i32, i32* %10, align 4
  %66 = add nsw i32 %65, 1
  %67 = icmp slt i32 %64, %66
  br i1 %67, label %68, label %77

68:                                               ; preds = %63
  %69 = load i32, i32* %9, align 4
  %70 = sext i32 %69 to i64
  %71 = getelementptr inbounds [500 x i32], [500 x i32]* %12, i64 0, i64 %70
  %72 = load i32, i32* %71, align 4
  %73 = add nsw i32 %72, 1
  %74 = load i32, i32* %9, align 4
  %75 = sext i32 %74 to i64
  %76 = getelementptr inbounds [500 x i32], [500 x i32]* %12, i64 0, i64 %75
  store i32 %73, i32* %76, align 4
  br label %89

77:                                               ; preds = %63
  %78 = load i32, i32* %10, align 4
  %79 = sext i32 %78 to i64
  %80 = getelementptr inbounds [500 x [6 x i8]], [500 x [6 x i8]]* %13, i64 0, i64 %79
  %81 = getelementptr inbounds [6 x i8], [6 x i8]* %80, i64 0, i64 0
  %82 = getelementptr inbounds [6 x i8], [6 x i8]* %14, i64 0, i64 0
  %83 = call i8* @strcpy(i8* %81, i8* %82) #6
  %84 = load i32, i32* %10, align 4
  %85 = sext i32 %84 to i64
  %86 = getelementptr inbounds [500 x i32], [500 x i32]* %12, i64 0, i64 %85
  store i32 1, i32* %86, align 4
  %87 = load i32, i32* %10, align 4
  %88 = add nsw i32 %87, 1
  store i32 %88, i32* %10, align 4
  br label %89

89:                                               ; preds = %77, %68
  br label %90

90:                                               ; preds = %89
  %91 = load i32, i32* %8, align 4
  %92 = add nsw i32 %91, 1
  store i32 %92, i32* %8, align 4
  br label %18

93:                                               ; preds = %18
  store i32 0, i32* %9, align 4
  br label %94

94:                                               ; preds = %111, %93
  %95 = load i32, i32* %9, align 4
  %96 = load i32, i32* %10, align 4
  %97 = icmp slt i32 %95, %96
  br i1 %97, label %98, label %114

98:                                               ; preds = %94
  %99 = load i32, i32* %9, align 4
  %100 = sext i32 %99 to i64
  %101 = getelementptr inbounds [500 x i32], [500 x i32]* %12, i64 0, i64 %100
  %102 = load i32, i32* %101, align 4
  %103 = load i32, i32* @p, align 4
  %104 = icmp sgt i32 %102, %103
  br i1 %104, label %105, label %110

105:                                              ; preds = %98
  %106 = load i32, i32* %9, align 4
  %107 = sext i32 %106 to i64
  %108 = getelementptr inbounds [500 x i32], [500 x i32]* %12, i64 0, i64 %107
  %109 = load i32, i32* %108, align 4
  store i32 %109, i32* @p, align 4
  br label %110

110:                                              ; preds = %105, %98
  br label %111

111:                                              ; preds = %110
  %112 = load i32, i32* %9, align 4
  %113 = add nsw i32 %112, 1
  store i32 %113, i32* %9, align 4
  br label %94

114:                                              ; preds = %94
  store i32 0, i32* %9, align 4
  br label %115

115:                                              ; preds = %145, %114
  %116 = load i32, i32* %9, align 4
  %117 = load i32, i32* %10, align 4
  %118 = icmp slt i32 %116, %117
  br i1 %118, label %119, label %148

119:                                              ; preds = %115
  %120 = load i32, i32* %9, align 4
  %121 = sext i32 %120 to i64
  %122 = getelementptr inbounds [500 x i32], [500 x i32]* %12, i64 0, i64 %121
  %123 = load i32, i32* %122, align 4
  %124 = load i32, i32* @p, align 4
  %125 = icmp sge i32 %123, %124
  br i1 %125, label %126, label %144

126:                                              ; preds = %119
  %127 = load i32, i32* %9, align 4
  %128 = sext i32 %127 to i64
  %129 = getelementptr inbounds [500 x i32], [500 x i32]* %12, i64 0, i64 %128
  %130 = load i32, i32* %129, align 4
  %131 = icmp sgt i32 %130, 1
  br i1 %131, label %132, label %144

132:                                              ; preds = %126
  %133 = load i32, i32* %11, align 4
  %134 = sext i32 %133 to i64
  %135 = getelementptr inbounds [500 x [6 x i8]], [500 x [6 x i8]]* @b, i64 0, i64 %134
  %136 = getelementptr inbounds [6 x i8], [6 x i8]* %135, i64 0, i64 0
  %137 = load i32, i32* %9, align 4
  %138 = sext i32 %137 to i64
  %139 = getelementptr inbounds [500 x [6 x i8]], [500 x [6 x i8]]* %13, i64 0, i64 %138
  %140 = getelementptr inbounds [6 x i8], [6 x i8]* %139, i64 0, i64 0
  %141 = call i8* @strcpy(i8* %136, i8* %140) #6
  %142 = load i32, i32* %11, align 4
  %143 = add nsw i32 %142, 1
  store i32 %143, i32* %11, align 4
  br label %144

144:                                              ; preds = %132, %126, %119
  br label %145

145:                                              ; preds = %144
  %146 = load i32, i32* %9, align 4
  %147 = add nsw i32 %146, 1
  store i32 %147, i32* %9, align 4
  br label %115

148:                                              ; preds = %115
  %149 = load i32, i32* @p, align 4
  %150 = icmp eq i32 %149, 1
  br i1 %150, label %151, label %152

151:                                              ; preds = %148
  store i32 0, i32* %4, align 4
  br label %154

152:                                              ; preds = %148
  %153 = load i32, i32* %11, align 4
  store i32 %153, i32* %4, align 4
  br label %154

154:                                              ; preds = %152, %151
  %155 = load i32, i32* %4, align 4
  ret i32 %155
}

; Function Attrs: noinline nounwind uwtable
define dso_local i32 @main() #0 {
  %1 = alloca i32, align 4
  %2 = alloca i32, align 4
  %3 = alloca [501 x i8], align 16
  %4 = alloca i32, align 4
  %5 = alloca i32, align 4
  store i32 0, i32* %1, align 4
  %6 = bitcast [501 x i8]* %3 to i8*
  call void @llvm.memset.p0i8.i64(i8* align 16 %6, i8 0, i64 501, i1 false)
  %7 = call i32 (i8*, ...) @__isoc99_scanf(i8* getelementptr inbounds ([4 x i8], [4 x i8]* @.str, i64 0, i64 0), i32* %2)
  %8 = getelementptr inbounds [501 x i8], [501 x i8]* %3, i64 0, i64 0
  %9 = call i32 (i8*, ...) bitcast (i32 (...)* @gets to i32 (i8*, ...)*)(i8* %8)
  %10 = getelementptr inbounds [501 x i8], [501 x i8]* %3, i64 0, i64 0
  %11 = load i32, i32* %2, align 4
  %12 = getelementptr inbounds [501 x i8], [501 x i8]* %3, i64 0, i64 0
  %13 = call i64 @strlen(i8* %12) #5
  %14 = trunc i64 %13 to i32
  %15 = call i32 @f(i8* %10, i32 %11, i32 %14)
  store i32 %15, i32* %4, align 4
  %16 = load i32, i32* %4, align 4
  %17 = icmp eq i32 %16, 0
  br i1 %17, label %18, label %20

18:                                               ; preds = %0
  %19 = call i32 (i8*, ...) @printf(i8* getelementptr inbounds ([4 x i8], [4 x i8]* @.str.1, i64 0, i64 0))
  br label %37

20:                                               ; preds = %0
  %21 = load i32, i32* @p, align 4
  %22 = call i32 (i8*, ...) @printf(i8* getelementptr inbounds ([4 x i8], [4 x i8]* @.str, i64 0, i64 0), i32 %21)
  store i32 0, i32* %5, align 4
  br label %23

23:                                               ; preds = %33, %20
  %24 = load i32, i32* %5, align 4
  %25 = load i32, i32* %4, align 4
  %26 = icmp slt i32 %24, %25
  br i1 %26, label %27, label %36

27:                                               ; preds = %23
  %28 = load i32, i32* %5, align 4
  %29 = sext i32 %28 to i64
  %30 = getelementptr inbounds [500 x [6 x i8]], [500 x [6 x i8]]* @b, i64 0, i64 %29
  %31 = getelementptr inbounds [6 x i8], [6 x i8]* %30, i64 0, i64 0
  %32 = call i32 @puts(i8* %31)
  br label %33

33:                                               ; preds = %27
  %34 = load i32, i32* %5, align 4
  %35 = add nsw i32 %34, 1
  store i32 %35, i32* %5, align 4
  br label %23

36:                                               ; preds = %23
  br label %37

37:                                               ; preds = %36, %18
  ret i32 0
}